target datalayout = "e-m:e-p270:32:32-p271:32:32-p272:64:64-i64:64-i128:128-f80:128-n8:16:32:64-S128"
target triple = "x86_64-pc-linux-gnu"

%"struct.vcpkg::StringView" = type { ptr, i64 }
%"struct.vcpkg::StringLiteral" = type { %"struct.vcpkg::ZStringView" }
%"struct.vcpkg::ZStringView" = type { %"struct.vcpkg::StringView" }
%"struct.vcpkg::Version" = type <{ %"class.std::__cxx11::basic_string", i32, [4 x i8] }>
%"class.std::__cxx11::basic_string" = type { %"struct.std::__cxx11::basic_string<char>::_Alloc_hider", i64, %union.anon.0 }
%"struct.std::__cxx11::basic_string<char>::_Alloc_hider" = type { ptr }
%union.anon.0 = type { i64, [8 x i8] }
%"struct.vcpkg::LineInfo" = type { i32, ptr }
%class.anon = type { i8 }
%"struct.vcpkg::Json::Value" = type { %"class.std::unique_ptr" }
%"class.std::unique_ptr" = type { %"struct.std::__uniq_ptr_data" }
%"struct.std::__uniq_ptr_data" = type { %"class.std::__uniq_ptr_impl" }
%"class.std::__uniq_ptr_impl" = type { %"class.std::tuple" }
%"class.std::tuple" = type { %"struct.std::_Tuple_impl" }
%"struct.std::_Tuple_impl" = type { %"struct.std::_Head_base.41" }
%"struct.std::_Head_base.41" = type { ptr }

@.str = private unnamed_addr constant [129 x i8] c"generated/home/dtcxzyw/WorkSpace/Projects/compilers/llvm-opt-benchmark/bench/vcpkg/vcpkg-tool/src/vcpkg/versiondeserializers.cpp\00", align 1
@_ZN5vcpkg19JsonIdVersionStringE = linkonce_odr dso_local constant { ptr, i64 } { ptr @.str.3, i64 14 }, comdat, align 8
@_ZN5vcpkg13JsonIdVersionE = linkonce_odr dso_local constant { ptr, i64 } { ptr @.str.1, i64 7 }, comdat, align 8
@_ZN5vcpkg19JsonIdVersionSemverE = linkonce_odr dso_local constant { ptr, i64 } { ptr @.str.2, i64 14 }, comdat, align 8
@_ZN5vcpkg17JsonIdVersionDateE = linkonce_odr dso_local constant { ptr, i64 } { ptr @.str.4, i64 12 }, comdat, align 8
@_ZN5vcpkg17JsonIdPortVersionE = linkonce_odr dso_local constant { ptr, i64 } { ptr @.str.5, i64 12 }, comdat, align 8

; Function Attrs: mustprogress nounwind uwtable
define linkonce_odr dso_local void @_ZN5vcpkg4Json5Value6stringINSt7__cxx1112basic_stringIcSt11char_traitsIcESaIcEEETnNSt9enable_ifIXsr3stdE18is_constructible_vINS_10StringViewERKT_EEiE4typeELi0EEES1_SD_(ptr dead_on_unwind noalias writable sret(%"struct.vcpkg::Json::Value") align 8 %0, ptr noundef nonnull align 8 dereferenceable(32) %1) #1 comdat align 2 personality ptr @__gxx_personality_v0 {
  %3 = alloca ptr, align 8
  %4 = alloca ptr, align 8
  %5 = alloca %"class.std::__cxx11::basic_string", align 8
  %6 = alloca %"struct.vcpkg::StringView", align 8
  store ptr %0, ptr %3, align 8
  store ptr %1, ptr %4, align 8
  %7 = load ptr, ptr %4, align 8
  call void @_ZN5vcpkg10StringViewC1ERKNSt7__cxx1112basic_stringIcSt11char_traitsIcESaIcEEE(ptr noundef nonnull align 8 dereferenceable(16) %6, ptr noundef nonnull align 8 dereferenceable(32) %7) #3
  invoke void @_ZNK5vcpkg10StringView9to_stringB5cxx11Ev(ptr dead_on_unwind writable sret(%"class.std::__cxx11::basic_string") align 8 %5, ptr noundef nonnull align 8 dereferenceable(16) %6)
          to label %8 unwind label %9

8:                                                ; preds = %2
  call void @_ZN5vcpkg4Json5Value6stringEONSt7__cxx1112basic_stringIcSt11char_traitsIcESaIcEEE(ptr dead_on_unwind writable sret(%"struct.vcpkg::Json::Value") align 8 %0, ptr noundef nonnull align 8 dereferenceable(32) %5) #3
  call void @_ZNSt7__cxx1112basic_stringIcSt11char_traitsIcESaIcEED1Ev(ptr noundef nonnull align 8 dereferenceable(32) %5) #3
  ret void

9:                                                ; preds = %2
  %10 = landingpad { ptr, i32 }
          catch ptr null
  %11 = extractvalue { ptr, i32 } %10, 0
  call void @__clang_call_terminate(ptr %11) #14
  unreachable
}

; Function Attrs: mustprogress uwtable
define internal { ptr, i64 } @"_ZZN5vcpkg25serialize_schemed_versionERNS_4Json6ObjectENS_13VersionSchemeERKNS_7VersionEENK3$_0clES3_"(ptr noundef nonnull align 1 dereferenceable(1) %0, i32 noundef %1) #0 align 2 {
  %3 = alloca %"struct.vcpkg::StringLiteral", align 8
  %4 = alloca ptr, align 8
  %5 = alloca i32, align 4
  %6 = alloca %"struct.vcpkg::LineInfo", align 8
  store ptr %0, ptr %4, align 8
  store i32 %1, ptr %5, align 4
  %7 = load i32, ptr %5, align 4
  switch i32 %7, label %12 [
    i32 4, label %8
    i32 2, label %9
    i32 1, label %10
    i32 3, label %11
  ]

8:                                                ; preds = %2
  call void @llvm.memcpy.p0.p0.i64(ptr align 8 %3, ptr align 8 @_ZN5vcpkg19JsonIdVersionStringE, i64 16, i1 false)
  br label %15

9:                                                ; preds = %2
  call void @llvm.memcpy.p0.p0.i64(ptr align 8 %3, ptr align 8 @_ZN5vcpkg19JsonIdVersionSemverE, i64 16, i1 false)
  br label %15

10:                                               ; preds = %2
  call void @llvm.memcpy.p0.p0.i64(ptr align 8 %3, ptr align 8 @_ZN5vcpkg13JsonIdVersionE, i64 16, i1 false)
  br label %15

11:                                               ; preds = %2
  call void @llvm.memcpy.p0.p0.i64(ptr align 8 %3, ptr align 8 @_ZN5vcpkg17JsonIdVersionDateE, i64 16, i1 false)
  br label %15

12:                                               ; preds = %2
  %13 = getelementptr inbounds %"struct.vcpkg::LineInfo", ptr %6, i32 0, i32 0
  store i32 280, ptr %13, align 8
  %14 = getelementptr inbounds %"struct.vcpkg::LineInfo", ptr %6, i32 0, i32 1
  store ptr @.str, ptr %14, align 8
  call void @_ZN5vcpkg6Checks11unreachableERKNS_8LineInfoE(ptr noundef nonnull align 8 dereferenceable(16) %6) #13
  unreachable

15:                                               ; preds = %11, %10, %9, %8
  %16 = getelementptr inbounds %"struct.vcpkg::StringLiteral", ptr %3, i32 0, i32 0
  %17 = getelementptr inbounds %"struct.vcpkg::ZStringView", ptr %16, i32 0, i32 0
  %18 = load { ptr, i64 }, ptr %17, align 8
  ret { ptr, i64 } %18
}

; Function Attrs: mustprogress uwtable
define dso_local void @_ZN5vcpkg25serialize_schemed_versionERNS_4Json6ObjectENS_13VersionSchemeERKNS_7VersionE(ptr noundef nonnull align 8 dereferenceable(24) %0, i32 noundef %1, ptr noundef nonnull align 8 dereferenceable(36) %2) #0 personality ptr @__gxx_personality_v0 {
  %4 = alloca ptr, align 8
  %5 = alloca i32, align 4
  %6 = alloca ptr, align 8
  %7 = alloca %class.anon, align 1
  %8 = alloca %"struct.vcpkg::StringView", align 8
  %9 = alloca %"struct.vcpkg::StringLiteral", align 8
  %10 = alloca %"struct.vcpkg::Json::Value", align 8
  %11 = alloca ptr, align 8
  %12 = alloca i32, align 4
  %13 = alloca %"struct.vcpkg::StringView", align 8
  %14 = alloca %"struct.vcpkg::Json::Value", align 8
  store ptr %0, ptr %4, align 8
  store i32 %1, ptr %5, align 4
  store ptr %2, ptr %6, align 8
  %15 = load ptr, ptr %4, align 8
  %16 = load i32, ptr %5, align 4
  %17 = call { ptr, i64 } @"_ZZN5vcpkg25serialize_schemed_versionERNS_4Json6ObjectENS_13VersionSchemeERKNS_7VersionEENK3$_0clES3_"(ptr noundef nonnull align 1 dereferenceable(1) %7, i32 noundef %16)
  %18 = getelementptr inbounds %"struct.vcpkg::StringLiteral", ptr %9, i32 0, i32 0
  %19 = getelementptr inbounds %"struct.vcpkg::ZStringView", ptr %18, i32 0, i32 0
  %20 = getelementptr inbounds { ptr, i64 }, ptr %19, i32 0, i32 0
  %21 = extractvalue { ptr, i64 } %17, 0
  store ptr %21, ptr %20, align 8
  %22 = getelementptr inbounds { ptr, i64 }, ptr %19, i32 0, i32 1
  %23 = extractvalue { ptr, i64 } %17, 1
  store i64 %23, ptr %22, align 8
  call void @llvm.memcpy.p0.p0.i64(ptr align 8 %8, ptr align 8 %9, i64 16, i1 false)
  %24 = load ptr, ptr %6, align 8
  %25 = getelementptr inbounds %"struct.vcpkg::Version", ptr %24, i32 0, i32 0
  call void @_ZN5vcpkg4Json5Value6stringINSt7__cxx1112basic_stringIcSt11char_traitsIcESaIcEEETnNSt9enable_ifIXsr3stdE18is_constructible_vINS_10StringViewERKT_EEiE4typeELi0EEES1_SD_(ptr dead_on_unwind writable sret(%"struct.vcpkg::Json::Value") align 8 %10, ptr noundef nonnull align 8 dereferenceable(32) %25) #3
  %26 = getelementptr inbounds { ptr, i64 }, ptr %8, i32 0, i32 0
  %27 = load ptr, ptr %26, align 8
  %28 = getelementptr inbounds { ptr, i64 }, ptr %8, i32 0, i32 1
  %29 = load i64, ptr %28, align 8
  %30 = invoke noundef nonnull align 8 dereferenceable(8) ptr @_ZN5vcpkg4Json6Object6insertENS_10StringViewEONS0_5ValueE(ptr noundef nonnull align 8 dereferenceable(24) %15, ptr %27, i64 %29, ptr noundef nonnull align 8 dereferenceable(8) %10)
          to label %31 unwind label %48

31:                                               ; preds = %3
  call void @_ZN5vcpkg4Json5ValueD1Ev(ptr noundef nonnull align 8 dereferenceable(8) %10) #3
  %32 = load ptr, ptr %6, align 8
  %33 = getelementptr inbounds %"struct.vcpkg::Version", ptr %32, i32 0, i32 1
  %34 = load i32, ptr %33, align 8
  %35 = icmp ne i32 %34, 0
  br i1 %35, label %36, label %56

36:                                               ; preds = %31
  %37 = load ptr, ptr %4, align 8
  call void @llvm.memcpy.p0.p0.i64(ptr align 8 %13, ptr align 8 @_ZN5vcpkg17JsonIdPortVersionE, i64 16, i1 false)
  %38 = load ptr, ptr %6, align 8
  %39 = getelementptr inbounds %"struct.vcpkg::Version", ptr %38, i32 0, i32 1
  %40 = load i32, ptr %39, align 8
  %41 = sext i32 %40 to i64
  call void @_ZN5vcpkg4Json5Value7integerEl(ptr dead_on_unwind writable sret(%"struct.vcpkg::Json::Value") align 8 %14, i64 noundef %41) #3
  %42 = getelementptr inbounds { ptr, i64 }, ptr %13, i32 0, i32 0
  %43 = load ptr, ptr %42, align 8
  %44 = getelementptr inbounds { ptr, i64 }, ptr %13, i32 0, i32 1
  %45 = load i64, ptr %44, align 8
  %46 = invoke noundef nonnull align 8 dereferenceable(8) ptr @_ZN5vcpkg4Json6Object6insertENS_10StringViewEONS0_5ValueE(ptr noundef nonnull align 8 dereferenceable(24) %37, ptr %43, i64 %45, ptr noundef nonnull align 8 dereferenceable(8) %14)
          to label %47 unwind label %52

47:                                               ; preds = %36
  call void @_ZN5vcpkg4Json5ValueD1Ev(ptr noundef nonnull align 8 dereferenceable(8) %14) #3
  br label %56

48:                                               ; preds = %3
  %49 = landingpad { ptr, i32 }
          cleanup
  %50 = extractvalue { ptr, i32 } %49, 0
  store ptr %50, ptr %11, align 8
  %51 = extractvalue { ptr, i32 } %49, 1
  store i32 %51, ptr %12, align 4
  call void @_ZN5vcpkg4Json5ValueD1Ev(ptr noundef nonnull align 8 dereferenceable(8) %10) #3
  br label %57

52:                                               ; preds = %36
  %53 = landingpad { ptr, i32 }
          cleanup
  %54 = extractvalue { ptr, i32 } %53, 0
  store ptr %54, ptr %11, align 8
  %55 = extractvalue { ptr, i32 } %53, 1
  store i32 %55, ptr %12, align 4
  call void @_ZN5vcpkg4Json5ValueD1Ev(ptr noundef nonnull align 8 dereferenceable(8) %14) #3
  br label %57

56:                                               ; preds = %47, %31
  ret void

57:                                               ; preds = %52, %48
  %58 = load ptr, ptr %11, align 8
  %59 = load i32, ptr %12, align 4
  %60 = insertvalue { ptr, i32 } poison, ptr %58, 0
  %61 = insertvalue { ptr, i32 } %60, i32 %59, 1
  resume { ptr, i32 } %61
}