; Function Attrs: mustprogress uwtable
define dso_local void @_ZN5vcpkg25serialize_schemed_versionERNS_4Json6ObjectENS_13VersionSchemeERKNS_7VersionE(ptr noundef nonnull align 8 dereferenceable(24) %0, i32 noundef %1, ptr noundef nonnull align 8 dereferenceable(36) %2) local_unnamed_addr #0 personality ptr @__gxx_personality_v0 {
  %4 = alloca %"class.std::__cxx11::basic_string", align 8
  %5 = alloca %"struct.vcpkg::StringView", align 8
  %6 = alloca %"struct.vcpkg::LineInfo", align 8
  %7 = alloca %"struct.vcpkg::Json::Value", align 8
  %8 = alloca %"struct.vcpkg::Json::Value", align 8
  call void @llvm.lifetime.start.p0(i64 16, ptr nonnull %6)
  %switch.tableidx = add i32 %1, -1
  %9 = icmp ult i32 %switch.tableidx, 4
  br i1 %9, label %switch.lookup, label %10

10:                                               ; preds = %3
  store i32 280, ptr %6, align 8
  %11 = getelementptr inbounds i8, ptr %6, i64 8
  store ptr @.str, ptr %11, align 8
  call void @_ZN5vcpkg6Checks11unreachableERKNS_8LineInfoE(ptr noundef nonnull align 8 dereferenceable(16) %6) #19
  unreachable

switch.lookup:                                    ; preds = %3
  %12 = zext nneg i32 %switch.tableidx to i64
  %switch.gep = getelementptr inbounds [4 x ptr], ptr @switch.table._ZN5vcpkg25serialize_schemed_versionERNS_4Json6ObjectENS_13VersionSchemeERKNS_7VersionE, i64 0, i64 %12
  %switch.load = load ptr, ptr %switch.gep, align 8
  %13 = zext nneg i32 %switch.tableidx to i64
  %switch.gep14 = getelementptr inbounds [4 x i64], ptr @switch.table._ZN5vcpkg25serialize_schemed_versionERNS_4Json6ObjectENS_13VersionSchemeERKNS_7VersionE.2, i64 0, i64 %13
  %switch.load15 = load i64, ptr %switch.gep14, align 8
  call void @llvm.lifetime.end.p0(i64 16, ptr nonnull %6)
  call void @llvm.lifetime.start.p0(i64 32, ptr nonnull %4)
  call void @llvm.lifetime.start.p0(i64 16, ptr nonnull %5)
  call void @_ZN5vcpkg10StringViewC1ERKNSt7__cxx1112basic_stringIcSt11char_traitsIcESaIcEEE(ptr noundef nonnull align 8 dereferenceable(16) %5, ptr noundef nonnull align 8 dereferenceable(32) %2) #17, !noalias !8
  invoke void @_ZNK5vcpkg10StringView9to_stringB5cxx11Ev(ptr dead_on_unwind nonnull writable sret(%"class.std::__cxx11::basic_string") align 8 %4, ptr noundef nonnull align 8 dereferenceable(16) %5)
          to label %_ZN5vcpkg4Json5Value6stringINSt7__cxx1112basic_stringIcSt11char_traitsIcESaIcEEETnNSt9enable_ifIXsr3stdE18is_constructible_vINS_10StringViewERKT_EEiE4typeELi0EEES1_SD_.exit unwind label %14, !noalias !8

14:                                               ; preds = %switch.lookup
  %15 = landingpad { ptr, i32 }
          catch ptr null
  %16 = extractvalue { ptr, i32 } %15, 0
  call void @__clang_call_terminate(ptr %16) #20
  unreachable

_ZN5vcpkg4Json5Value6stringINSt7__cxx1112basic_stringIcSt11char_traitsIcESaIcEEETnNSt9enable_ifIXsr3stdE18is_constructible_vINS_10StringViewERKT_EEiE4typeELi0EEES1_SD_.exit: ; preds = %switch.lookup
  call void @_ZN5vcpkg4Json5Value6stringEONSt7__cxx1112basic_stringIcSt11char_traitsIcESaIcEEE(ptr dead_on_unwind nonnull writable sret(%"struct.vcpkg::Json::Value") align 8 %7, ptr noundef nonnull align 8 dereferenceable(32) %4) #17
  call void @_ZNSt7__cxx1112basic_stringIcSt11char_traitsIcESaIcEED1Ev(ptr noundef nonnull align 8 dereferenceable(32) %4) #17
  call void @llvm.lifetime.end.p0(i64 32, ptr nonnull %4)
  call void @llvm.lifetime.end.p0(i64 16, ptr nonnull %5)
  %17 = invoke noundef nonnull align 8 dereferenceable(8) ptr @_ZN5vcpkg4Json6Object6insertENS_10StringViewEONS0_5ValueE(ptr noundef nonnull align 8 dereferenceable(24) %0, ptr nonnull %switch.load, i64 %switch.load15, ptr noundef nonnull align 8 dereferenceable(8) %7)
          to label %18 unwind label %25

18:                                               ; preds = %_ZN5vcpkg4Json5Value6stringINSt7__cxx1112basic_stringIcSt11char_traitsIcESaIcEEETnNSt9enable_ifIXsr3stdE18is_constructible_vINS_10StringViewERKT_EEiE4typeELi0EEES1_SD_.exit
  call void @_ZN5vcpkg4Json5ValueD1Ev(ptr noundef nonnull align 8 dereferenceable(8) %7) #17
  %19 = getelementptr inbounds i8, ptr %2, i64 32
  %20 = load i32, ptr %19, align 8
  %.not = icmp eq i32 %20, 0
  br i1 %.not, label %29, label %21

21:                                               ; preds = %18
  %22 = sext i32 %20 to i64
  call void @_ZN5vcpkg4Json5Value7integerEl(ptr dead_on_unwind nonnull writable sret(%"struct.vcpkg::Json::Value") align 8 %8, i64 noundef %22) #17
  %23 = invoke noundef nonnull align 8 dereferenceable(8) ptr @_ZN5vcpkg4Json6Object6insertENS_10StringViewEONS0_5ValueE(ptr noundef nonnull align 8 dereferenceable(24) %0, ptr nonnull @.str.5, i64 12, ptr noundef nonnull align 8 dereferenceable(8) %8)
          to label %24 unwind label %27

24:                                               ; preds = %21
  call void @_ZN5vcpkg4Json5ValueD1Ev(ptr noundef nonnull align 8 dereferenceable(8) %8) #17
  br label %29

25:                                               ; preds = %_ZN5vcpkg4Json5Value6stringINSt7__cxx1112basic_stringIcSt11char_traitsIcESaIcEEETnNSt9enable_ifIXsr3stdE18is_constructible_vINS_10StringViewERKT_EEiE4typeELi0EEES1_SD_.exit
  %26 = landingpad { ptr, i32 }
          cleanup
  br label %30

27:                                               ; preds = %21
  %28 = landingpad { ptr, i32 }
          cleanup
  br label %30

29:                                               ; preds = %24, %18
  ret void

30:                                               ; preds = %27, %25
  %.sink = phi ptr [ %8, %27 ], [ %7, %25 ]
  %.pn = phi { ptr, i32 } [ %28, %27 ], [ %26, %25 ]
  call void @_ZN5vcpkg4Json5ValueD1Ev(ptr noundef nonnull align 8 dereferenceable(8) %.sink) #17
  resume { ptr, i32 } %.pn
}